target datalayout = "e-m:e-p270:32:32-p271:32:32-p272:64:64-i64:64-i128:128-f80:128-n8:16:32:64-S128"
target triple = "x86_64-pc-linux-gnu"

%struct.jv = type { i8, i8, i16, i32, %union.anon }
%union.anon = type { ptr }

@.str.214 = private unnamed_addr constant [5 x i8] c"name\00", align 1

; Function Attrs: nounwind uwtable
define internal i32 @f_match_name_iter(ptr noundef %0, ptr noundef %1, i32 noundef %2, ptr noundef %3, ptr noundef %4, ptr noundef %5) #0 {
  %7 = alloca ptr, align 8
  %8 = alloca ptr, align 8
  %9 = alloca i32, align 4
  %10 = alloca ptr, align 8
  %11 = alloca ptr, align 8
  %12 = alloca ptr, align 8
  %13 = alloca %struct.jv, align 8
  %14 = alloca i32, align 4
  %15 = alloca %struct.jv, align 8
  %16 = alloca %struct.jv, align 8
  %17 = alloca %struct.jv, align 8
  %18 = alloca %struct.jv, align 8
  %19 = alloca %struct.jv, align 8
  %20 = alloca %struct.jv, align 8
  store ptr %0, ptr %7, align 8, !tbaa !12
  store ptr %1, ptr %8, align 8, !tbaa !12
  store i32 %2, ptr %9, align 4, !tbaa !10
  store ptr %3, ptr %10, align 8, !tbaa !92
  store ptr %4, ptr %11, align 8, !tbaa !61
  store ptr %5, ptr %12, align 8, !tbaa !76
  call void @llvm.lifetime.start.p0(i64 16, ptr %13) #10
  %21 = load ptr, ptr %12, align 8, !tbaa !76
  call void @llvm.memcpy.p0.p0.i64(ptr align 8 %13, ptr align 8 %21, i64 16, i1 false), !tbaa.struct !4
  call void @llvm.lifetime.start.p0(i64 4, ptr %14) #10
  store i32 0, ptr %14, align 4, !tbaa !10
  br label %22

22:                                               ; preds = %118, %6
  %23 = load i32, ptr %14, align 4, !tbaa !10
  %24 = load i32, ptr %9, align 4, !tbaa !10
  %25 = icmp slt i32 %23, %24
  br i1 %25, label %27, label %26

26:                                               ; preds = %22
  call void @llvm.lifetime.end.p0(i64 4, ptr %14) #10
  br label %121

27:                                               ; preds = %22
  call void @llvm.lifetime.start.p0(i64 16, ptr %15) #10
  %28 = getelementptr inbounds nuw { i64, ptr }, ptr %13, i32 0, i32 0
  %29 = load i64, ptr %28, align 8
  %30 = getelementptr inbounds nuw { i64, ptr }, ptr %13, i32 0, i32 1
  %31 = load ptr, ptr %30, align 8
  %32 = call { i64, ptr } @jv_copy(i64 %29, ptr %31)
  %33 = getelementptr inbounds nuw { i64, ptr }, ptr %16, i32 0, i32 0
  %34 = extractvalue { i64, ptr } %32, 0
  store i64 %34, ptr %33, align 8
  %35 = getelementptr inbounds nuw { i64, ptr }, ptr %16, i32 0, i32 1
  %36 = extractvalue { i64, ptr } %32, 1
  store ptr %36, ptr %35, align 8
  %37 = load ptr, ptr %10, align 8, !tbaa !92
  %38 = load i32, ptr %14, align 4, !tbaa !10
  %39 = sext i32 %38 to i64
  %40 = getelementptr inbounds i32, ptr %37, i64 %39
  %41 = load i32, ptr %40, align 4, !tbaa !10
  %42 = sub nsw i32 %41, 1
  %43 = getelementptr inbounds nuw { i64, ptr }, ptr %16, i32 0, i32 0
  %44 = load i64, ptr %43, align 8
  %45 = getelementptr inbounds nuw { i64, ptr }, ptr %16, i32 0, i32 1
  %46 = load ptr, ptr %45, align 8
  %47 = call { i64, ptr } @jv_array_get(i64 %44, ptr %46, i32 noundef %42)
  %48 = getelementptr inbounds nuw { i64, ptr }, ptr %15, i32 0, i32 0
  %49 = extractvalue { i64, ptr } %47, 0
  store i64 %49, ptr %48, align 8
  %50 = getelementptr inbounds nuw { i64, ptr }, ptr %15, i32 0, i32 1
  %51 = extractvalue { i64, ptr } %47, 1
  store ptr %51, ptr %50, align 8
  %52 = getelementptr inbounds nuw { i64, ptr }, ptr %15, i32 0, i32 0
  %53 = load i64, ptr %52, align 8
  %54 = getelementptr inbounds nuw { i64, ptr }, ptr %15, i32 0, i32 1
  %55 = load ptr, ptr %54, align 8
  %56 = call i32 @jv_get_kind(i64 %53, ptr %55)
  %57 = icmp eq i32 %56, 7
  br i1 %57, label %58, label %112

58:                                               ; preds = %27
  call void @llvm.lifetime.start.p0(i64 16, ptr %17) #10
  %59 = call { i64, ptr } @jv_string(ptr noundef @.str.214)
  %60 = getelementptr inbounds nuw { i64, ptr }, ptr %18, i32 0, i32 0
  %61 = extractvalue { i64, ptr } %59, 0
  store i64 %61, ptr %60, align 8
  %62 = getelementptr inbounds nuw { i64, ptr }, ptr %18, i32 0, i32 1
  %63 = extractvalue { i64, ptr } %59, 1
  store ptr %63, ptr %62, align 8
  %64 = load ptr, ptr %7, align 8, !tbaa !12
  %65 = load ptr, ptr %8, align 8, !tbaa !12
  %66 = load ptr, ptr %7, align 8, !tbaa !12
  %67 = ptrtoint ptr %65 to i64
  %68 = ptrtoint ptr %66 to i64
  %69 = sub i64 %67, %68
  %70 = trunc i64 %69 to i32
  %71 = call { i64, ptr } @jv_string_sized(ptr noundef %64, i32 noundef %70)
  %72 = getelementptr inbounds nuw { i64, ptr }, ptr %19, i32 0, i32 0
  %73 = extractvalue { i64, ptr } %71, 0
  store i64 %73, ptr %72, align 8
  %74 = getelementptr inbounds nuw { i64, ptr }, ptr %19, i32 0, i32 1
  %75 = extractvalue { i64, ptr } %71, 1
  store ptr %75, ptr %74, align 8
  %76 = getelementptr inbounds nuw { i64, ptr }, ptr %15, i32 0, i32 0
  %77 = load i64, ptr %76, align 8
  %78 = getelementptr inbounds nuw { i64, ptr }, ptr %15, i32 0, i32 1
  %79 = load ptr, ptr %78, align 8
  %80 = getelementptr inbounds nuw { i64, ptr }, ptr %18, i32 0, i32 0
  %81 = load i64, ptr %80, align 8
  %82 = getelementptr inbounds nuw { i64, ptr }, ptr %18, i32 0, i32 1
  %83 = load ptr, ptr %82, align 8
  %84 = getelementptr inbounds nuw { i64, ptr }, ptr %19, i32 0, i32 0
  %85 = load i64, ptr %84, align 8
  %86 = getelementptr inbounds nuw { i64, ptr }, ptr %19, i32 0, i32 1
  %87 = load ptr, ptr %86, align 8
  %88 = call { i64, ptr } @jv_object_set(i64 %77, ptr %79, i64 %81, ptr %83, i64 %85, ptr %87)
  %89 = getelementptr inbounds nuw { i64, ptr }, ptr %17, i32 0, i32 0
  %90 = extractvalue { i64, ptr } %88, 0
  store i64 %90, ptr %89, align 8
  %91 = getelementptr inbounds nuw { i64, ptr }, ptr %17, i32 0, i32 1
  %92 = extractvalue { i64, ptr } %88, 1
  store ptr %92, ptr %91, align 8
  call void @llvm.memcpy.p0.p0.i64(ptr align 8 %15, ptr align 8 %17, i64 16, i1 false), !tbaa.struct !4
  call void @llvm.lifetime.end.p0(i64 16, ptr %17) #10
  call void @llvm.lifetime.start.p0(i64 16, ptr %20) #10
  %93 = load ptr, ptr %10, align 8, !tbaa !92
  %94 = load i32, ptr %14, align 4, !tbaa !10
  %95 = sext i32 %94 to i64
  %96 = getelementptr inbounds i32, ptr %93, i64 %95
  %97 = load i32, ptr %96, align 4, !tbaa !10
  %98 = sub nsw i32 %97, 1
  %99 = getelementptr inbounds nuw { i64, ptr }, ptr %13, i32 0, i32 0
  %100 = load i64, ptr %99, align 8
  %101 = getelementptr inbounds nuw { i64, ptr }, ptr %13, i32 0, i32 1
  %102 = load ptr, ptr %101, align 8
  %103 = getelementptr inbounds nuw { i64, ptr }, ptr %15, i32 0, i32 0
  %104 = load i64, ptr %103, align 8
  %105 = getelementptr inbounds nuw { i64, ptr }, ptr %15, i32 0, i32 1
  %106 = load ptr, ptr %105, align 8
  %107 = call { i64, ptr } @jv_array_set(i64 %100, ptr %102, i32 noundef %98, i64 %104, ptr %106)
  %108 = getelementptr inbounds nuw { i64, ptr }, ptr %20, i32 0, i32 0
  %109 = extractvalue { i64, ptr } %107, 0
  store i64 %109, ptr %108, align 8
  %110 = getelementptr inbounds nuw { i64, ptr }, ptr %20, i32 0, i32 1
  %111 = extractvalue { i64, ptr } %107, 1
  store ptr %111, ptr %110, align 8
  call void @llvm.memcpy.p0.p0.i64(ptr align 8 %13, ptr align 8 %20, i64 16, i1 false), !tbaa.struct !4
  call void @llvm.lifetime.end.p0(i64 16, ptr %20) #10
  br label %117

112:                                              ; preds = %27
  %113 = getelementptr inbounds nuw { i64, ptr }, ptr %15, i32 0, i32 0
  %114 = load i64, ptr %113, align 8
  %115 = getelementptr inbounds nuw { i64, ptr }, ptr %15, i32 0, i32 1
  %116 = load ptr, ptr %115, align 8
  call void @jv_free(i64 %114, ptr %116)
  br label %117

117:                                              ; preds = %112, %58
  call void @llvm.lifetime.end.p0(i64 16, ptr %15) #10
  br label %118

118:                                              ; preds = %117
  %119 = load i32, ptr %14, align 4, !tbaa !10
  %120 = add nsw i32 %119, 1
  store i32 %120, ptr %14, align 4, !tbaa !10
  br label %22, !llvm.loop !93

121:                                              ; preds = %26
  %122 = load ptr, ptr %12, align 8, !tbaa !76
  call void @llvm.memcpy.p0.p0.i64(ptr align 8 %122, ptr align 8 %13, i64 16, i1 false), !tbaa.struct !4
  call void @llvm.lifetime.end.p0(i64 16, ptr %13) #10
  ret i32 0
}