; Function Attrs: nounwind uwtable
define internal noundef i32 @f_match_name_iter(ptr noundef %0, ptr noundef %1, i32 noundef %2, ptr noundef readonly captures(none) %3, ptr readnone captures(none) %4, ptr noundef captures(none) %5) #0 {
  %.sroa.018.0.copyload = load i64, ptr %5, align 8
  %.sroa.7.0..sroa_idx = getelementptr inbounds nuw i8, ptr %5, i64 8
  %.sroa.7.0.copyload = load ptr, ptr %.sroa.7.0..sroa_idx, align 8, !tbaa !25
  %7 = icmp sgt i32 %2, 0
  br i1 %7, label %.lr.ph, label %._crit_edge

.lr.ph:                                           ; preds = %6
  %8 = ptrtoint ptr %1 to i64
  %9 = ptrtoint ptr %0 to i64
  %10 = sub i64 %8, %9
  %11 = trunc i64 %10 to i32
  %wide.trip.count = zext nneg i32 %2 to i64
  br label %12

._crit_edge:                                      ; preds = %40, %6
  %.sroa.018.0.lcssa = phi i64 [ %.sroa.018.0.copyload, %6 ], [ %.sroa.018.1, %40 ]
  %.sroa.7.0.lcssa = phi ptr [ %.sroa.7.0.copyload, %6 ], [ %.sroa.7.1, %40 ]
  store i64 %.sroa.018.0.lcssa, ptr %5, align 8
  store ptr %.sroa.7.0.lcssa, ptr %.sroa.7.0..sroa_idx, align 8, !tbaa !25
  ret i32 0

12:                                               ; preds = %.lr.ph, %40
  %indvars.iv = phi i64 [ 0, %.lr.ph ], [ %indvars.iv.next, %40 ]
  %.sroa.7.033 = phi ptr [ %.sroa.7.0.copyload, %.lr.ph ], [ %.sroa.7.1, %40 ]
  %.sroa.018.032 = phi i64 [ %.sroa.018.0.copyload, %.lr.ph ], [ %.sroa.018.1, %40 ]
  %13 = tail call { i64, ptr } @jv_copy(i64 %.sroa.018.032, ptr %.sroa.7.033) #14
  %14 = extractvalue { i64, ptr } %13, 0
  %15 = extractvalue { i64, ptr } %13, 1
  %16 = getelementptr inbounds nuw i32, ptr %3, i64 %indvars.iv
  %17 = load i32, ptr %16, align 4, !tbaa !19
  %18 = add nsw i32 %17, -1
  %19 = tail call { i64, ptr } @jv_array_get(i64 %14, ptr %15, i32 noundef %18) #14
  %20 = extractvalue { i64, ptr } %19, 0
  %21 = extractvalue { i64, ptr } %19, 1
  %22 = tail call i32 @jv_get_kind(i64 %20, ptr %21) #14
  %23 = icmp eq i32 %22, 7
  br i1 %23, label %24, label %39

24:                                               ; preds = %12
  %25 = tail call { i64, ptr } @jv_string(ptr noundef nonnull @.str.214) #14
  %26 = extractvalue { i64, ptr } %25, 0
  %27 = extractvalue { i64, ptr } %25, 1
  %28 = tail call { i64, ptr } @jv_string_sized(ptr noundef %0, i32 noundef %11) #14
  %29 = extractvalue { i64, ptr } %28, 0
  %30 = extractvalue { i64, ptr } %28, 1
  %31 = tail call { i64, ptr } @jv_object_set(i64 %20, ptr %21, i64 %26, ptr %27, i64 %29, ptr %30) #14
  %32 = extractvalue { i64, ptr } %31, 0
  %33 = extractvalue { i64, ptr } %31, 1
  %34 = load i32, ptr %16, align 4, !tbaa !19
  %35 = add nsw i32 %34, -1
  %36 = tail call { i64, ptr } @jv_array_set(i64 %.sroa.018.032, ptr %.sroa.7.033, i32 noundef %35, i64 %32, ptr %33) #14
  %37 = extractvalue { i64, ptr } %36, 0
  %38 = extractvalue { i64, ptr } %36, 1
  br label %40

39:                                               ; preds = %12
  tail call void @jv_free(i64 %20, ptr %21) #14
  br label %40

40:                                               ; preds = %39, %24
  %.sroa.018.1 = phi i64 [ %37, %24 ], [ %.sroa.018.032, %39 ]
  %.sroa.7.1 = phi ptr [ %38, %24 ], [ %.sroa.7.033, %39 ]
  %indvars.iv.next = add nuw nsw i64 %indvars.iv, 1
  %exitcond.not = icmp eq i64 %indvars.iv.next, %wide.trip.count
  br i1 %exitcond.not, label %._crit_edge, label %12, !llvm.loop !73
}